target datalayout = "e-m:e-p270:32:32-p271:32:32-p272:64:64-i64:64-i128:128-f80:128-n8:16:32:64-S128"
target triple = "x86_64-pc-linux-gnu"

%"struct.llvm::support::detail::packed_endian_specific_integral" = type { %struct.anon }
%struct.anon = type { [4 x i8] }
%"class.llvm::StringRef" = type { ptr, i64 }
%"class.llvm::SmallString" = type { %"class.llvm::SmallVector" }
%"class.llvm::SmallVector" = type { %"class.llvm::SmallVectorImpl", %"struct.llvm::SmallVectorStorage" }
%"class.llvm::SmallVectorImpl" = type { %"class.llvm::SmallVectorTemplateBase" }
%"class.llvm::SmallVectorTemplateBase" = type { %"class.llvm::SmallVectorTemplateCommon" }
%"class.llvm::SmallVectorTemplateCommon" = type { %"class.llvm::SmallVectorBase" }
%"class.llvm::SmallVectorBase" = type { ptr, i64, i64 }
%"struct.llvm::SmallVectorStorage" = type { [32 x i8] }
%"class.std::optional" = type { %"struct.std::_Optional_base" }
%"struct.std::_Optional_base" = type { %"struct.std::_Optional_payload" }
%"struct.std::_Optional_payload" = type { %"struct.std::_Optional_payload_base.base", [7 x i8] }
%"struct.std::_Optional_payload_base.base" = type <{ %"union.std::_Optional_payload_base<llvm::StringRef>::_Storage", i8 }>
%"union.std::_Optional_payload_base<llvm::StringRef>::_Storage" = type { %"class.llvm::StringRef" }
%"class.llvm::object::TBVectorExt" = type { i16, %"class.llvm::SmallString" }
%"class.llvm::object::XCOFFTracebackTable" = type { ptr, i8, [7 x i8], %"class.std::optional.133", %"class.std::optional.143", %"class.std::optional.143", %"class.std::optional.143", %"class.std::optional.151", %"class.std::optional", %"class.std::optional.167", [6 x i8], %"class.std::optional.173", %"class.std::optional.167", [6 x i8], %"class.std::optional.183" }
%"class.std::optional.133" = type { %"struct.std::_Optional_base.134" }
%"struct.std::_Optional_base.134" = type { %"struct.std::_Optional_payload.136" }
%"struct.std::_Optional_payload.136" = type { %"struct.std::_Optional_payload.base.140", [7 x i8] }
%"struct.std::_Optional_payload.base.140" = type { %"struct.std::_Optional_payload_base.base.139" }
%"struct.std::_Optional_payload_base.base.139" = type <{ %"union.std::_Optional_payload_base<llvm::SmallString<32>>::_Storage", i8 }>
%"union.std::_Optional_payload_base<llvm::SmallString<32>>::_Storage" = type { %"class.llvm::SmallString" }
%"class.std::optional.143" = type { %"struct.std::_Optional_base.144" }
%"struct.std::_Optional_base.144" = type { %"struct.std::_Optional_payload.146" }
%"struct.std::_Optional_payload.146" = type { %"struct.std::_Optional_payload_base.base.148", [3 x i8] }
%"struct.std::_Optional_payload_base.base.148" = type <{ %"union.std::_Optional_payload_base<unsigned int>::_Storage", i8 }>
%"union.std::_Optional_payload_base<unsigned int>::_Storage" = type { i32 }
%"class.std::optional.151" = type { %"struct.std::_Optional_base.152" }
%"struct.std::_Optional_base.152" = type { %"struct.std::_Optional_payload.154" }
%"struct.std::_Optional_payload.154" = type { %"struct.std::_Optional_payload.base.164", [7 x i8] }
%"struct.std::_Optional_payload.base.164" = type { %"struct.std::_Optional_payload_base.base.163" }
%"struct.std::_Optional_payload_base.base.163" = type <{ %"union.std::_Optional_payload_base<llvm::SmallVector<unsigned int, 8>>::_Storage", i8 }>
%"union.std::_Optional_payload_base<llvm::SmallVector<unsigned int, 8>>::_Storage" = type { %"class.llvm::SmallVector.157" }
%"class.llvm::SmallVector.157" = type { %"class.llvm::SmallVectorImpl.158", %"struct.llvm::SmallVectorStorage.162" }
%"class.llvm::SmallVectorImpl.158" = type { %"class.llvm::SmallVectorTemplateBase.159" }
%"class.llvm::SmallVectorTemplateBase.159" = type { %"class.llvm::SmallVectorTemplateCommon.160" }
%"class.llvm::SmallVectorTemplateCommon.160" = type { %"class.llvm::SmallVectorBase.161" }
%"class.llvm::SmallVectorBase.161" = type { ptr, i32, i32 }
%"struct.llvm::SmallVectorStorage.162" = type { [32 x i8] }
%"class.std::optional.173" = type { %"struct.std::_Optional_base.174" }
%"struct.std::_Optional_base.174" = type { %"struct.std::_Optional_payload.176" }
%"struct.std::_Optional_payload.176" = type { %"struct.std::_Optional_payload.base.180", [7 x i8] }
%"struct.std::_Optional_payload.base.180" = type { %"struct.std::_Optional_payload_base.base.179" }
%"struct.std::_Optional_payload_base.base.179" = type <{ %"union.std::_Optional_payload_base<llvm::object::TBVectorExt>::_Storage", i8 }>
%"union.std::_Optional_payload_base<llvm::object::TBVectorExt>::_Storage" = type { %"class.llvm::object::TBVectorExt" }
%"class.std::optional.167" = type { %"struct.std::_Optional_base.168" }
%"struct.std::_Optional_base.168" = type { %"struct.std::_Optional_payload.170" }
%"struct.std::_Optional_payload.170" = type { %"struct.std::_Optional_payload_base.171" }
%"struct.std::_Optional_payload_base.171" = type { %"union.std::_Optional_payload_base<unsigned char>::_Storage", i8 }
%"union.std::_Optional_payload_base<unsigned char>::_Storage" = type { %"struct.std::_Optional_payload_base<unsigned char>::_Empty_byte" }
%"struct.std::_Optional_payload_base<unsigned char>::_Empty_byte" = type { i8 }
%"class.std::optional.183" = type { %"struct.std::_Optional_base.184" }
%"struct.std::_Optional_base.184" = type { %"struct.std::_Optional_payload.186" }
%"struct.std::_Optional_payload.186" = type { %"struct.std::_Optional_payload_base.base.188", [7 x i8] }
%"struct.std::_Optional_payload_base.base.188" = type <{ %"union.std::_Optional_payload_base<unsigned long>::_Storage", i8 }>
%"union.std::_Optional_payload_base<unsigned long>::_Storage" = type { i64 }

; Function Attrs: mustprogress nounwind uwtable
define linkonce_odr hidden noundef i32 @_ZN4llvm8byteswapIjvEET_S1_(i32 noundef %0) #0 comdat {
  %2 = alloca i32, align 4
  %3 = alloca i32, align 4
  store i32 %0, ptr %2, align 4
  %4 = load i32, ptr %2, align 4
  store i32 %4, ptr %3, align 4
  %5 = load i32, ptr %3, align 4
  %6 = call i32 @llvm.bswap.i32(i32 %5)
  ret i32 %6
}

; Function Attrs: mustprogress nounwind uwtable
define linkonce_odr hidden noundef i32 @_ZN4llvm3sys15getSwappedBytesEj(i32 noundef %0) #0 comdat {
  %2 = alloca i32, align 4
  store i32 %0, ptr %2, align 4
  %3 = load i32, ptr %2, align 4
  %4 = call noundef i32 @_ZN4llvm8byteswapIjvEET_S1_(i32 noundef %3) #12
  ret i32 %4
}

; Function Attrs: mustprogress nounwind uwtable
define linkonce_odr hidden void @_ZN4llvm3sys13swapByteOrderIjEEvRT_(ptr noundef nonnull align 4 dereferenceable(4) %0) #0 comdat {
  %2 = alloca ptr, align 8
  store ptr %0, ptr %2, align 8
  %3 = load ptr, ptr %2, align 8
  %4 = load i32, ptr %3, align 4
  %5 = call noundef i32 @_ZN4llvm3sys15getSwappedBytesEj(i32 noundef %4)
  %6 = load ptr, ptr %2, align 8
  store i32 %5, ptr %6, align 4
  ret void
}

; Function Attrs: mustprogress nounwind uwtable
define linkonce_odr hidden noundef i32 @_ZN4llvm7support6endian9byte_swapIjEET_S3_NS_10endiannessE(i32 noundef %0, i32 noundef %1) #0 comdat {
  %3 = alloca i32, align 4
  %4 = alloca i32, align 4
  store i32 %0, ptr %3, align 4
  store i32 %1, ptr %4, align 4
  %5 = load i32, ptr %4, align 4
  %6 = icmp ne i32 %5, 1
  br i1 %6, label %7, label %8

7:                                                ; preds = %2
  call void @_ZN4llvm3sys13swapByteOrderIjEEvRT_(ptr noundef nonnull align 4 dereferenceable(4) %3)
  br label %8

8:                                                ; preds = %7, %2
  %9 = load i32, ptr %3, align 4
  ret i32 %9
}

; Function Attrs: mustprogress nounwind uwtable
define linkonce_odr hidden noundef i32 @_ZN4llvm7support6endian4readIjLm1EEET_PKvNS_10endiannessE(ptr noundef %0, i32 noundef %1) #0 comdat {
  %3 = alloca ptr, align 8
  %4 = alloca i32, align 4
  %5 = alloca i32, align 4
  store ptr %0, ptr %3, align 8
  store i32 %1, ptr %4, align 4
  %6 = load ptr, ptr %3, align 8
  call void @llvm.assume(i1 true) [ "align"(ptr %6, i64 1) ]
  call void @llvm.memcpy.p0.p0.i64(ptr align 4 %5, ptr align 1 %6, i64 4, i1 false)
  %7 = load i32, ptr %5, align 4
  %8 = load i32, ptr %4, align 4
  %9 = call noundef i32 @_ZN4llvm7support6endian9byte_swapIjEET_S3_NS_10endiannessE(i32 noundef %7, i32 noundef %8)
  ret i32 %9
}

; Function Attrs: mustprogress nounwind uwtable
define linkonce_odr hidden noundef i32 @_ZN4llvm7support6endian4readIjLNS_10endiannessE0ELm1EEET_PKv(ptr noundef %0) #0 comdat {
  %2 = alloca ptr, align 8
  store ptr %0, ptr %2, align 8
  %3 = load ptr, ptr %2, align 8
  %4 = call noundef i32 @_ZN4llvm7support6endian4readIjLm1EEET_PKvNS_10endiannessE(ptr noundef %3, i32 noundef 0)
  ret i32 %4
}

; Function Attrs: mustprogress nounwind uwtable
define linkonce_odr hidden noundef i32 @_ZNK4llvm7support6detail31packed_endian_specific_integralIjLNS_10endiannessE0ELm1ELm1EEcvjEv(ptr noundef nonnull align 1 dereferenceable(4) %0) #0 comdat align 2 {
  %2 = alloca ptr, align 8
  store ptr %0, ptr %2, align 8
  %3 = load ptr, ptr %2, align 8
  %4 = getelementptr inbounds nuw %"struct.llvm::support::detail::packed_endian_specific_integral", ptr %3, i32 0, i32 0
  %5 = getelementptr inbounds nuw %struct.anon, ptr %4, i32 0, i32 0
  %6 = getelementptr inbounds [4 x i8], ptr %5, i64 0, i64 0
  %7 = call noundef i32 @_ZN4llvm7support6endian4readIjLNS_10endiannessE0ELm1EEET_PKv(ptr noundef %6)
  ret i32 %7
}

; Function Attrs: mustprogress nounwind uwtable
define linkonce_odr hidden noundef i32 @_ZN4llvm7support6endian4readIjLNS_10endiannessE0EEET_PKv(ptr noundef %0) #0 comdat {
  %2 = alloca ptr, align 8
  store ptr %0, ptr %2, align 8
  %3 = load ptr, ptr %2, align 8
  %4 = call noundef i32 @_ZNK4llvm7support6detail31packed_endian_specific_integralIjLNS_10endiannessE0ELm1ELm1EEcvjEv(ptr noundef nonnull align 1 dereferenceable(4) %3)
  ret i32 %4
}

; Function Attrs: mustprogress nounwind uwtable
define linkonce_odr hidden noundef i32 @_ZN4llvm7support6endian6read32ILNS_10endiannessE0EEEjPKv(ptr noundef %0) #0 comdat {
  %2 = alloca ptr, align 8
  store ptr %0, ptr %2, align 8
  %3 = load ptr, ptr %2, align 8
  %4 = call noundef i32 @_ZN4llvm7support6endian4readIjLNS_10endiannessE0EEET_PKv(ptr noundef %3)
  ret i32 %4
}

; Function Attrs: mustprogress nounwind uwtable
define linkonce_odr hidden noundef i32 @_ZN4llvm7support6endian8read32beEPKv(ptr noundef %0) #0 comdat {
  %2 = alloca ptr, align 8
  store ptr %0, ptr %2, align 8
  %3 = load ptr, ptr %2, align 8
  %4 = call noundef i32 @_ZN4llvm7support6endian6read32ILNS_10endiannessE0EEEjPKv(ptr noundef %3)
  ret i32 %4
}

; Function Attrs: mustprogress nounwind uwtable
define dso_local noundef zeroext i1 @_ZNK4llvm6object19XCOFFTracebackTable13hasVectorInfoEv(ptr noundef nonnull align 8 dereferenceable(288) %0) #0 align 2 {
  %2 = alloca ptr, align 8
  store ptr %0, ptr %2, align 8
  %3 = load ptr, ptr %2, align 8
  %4 = getelementptr inbounds nuw %"class.llvm::object::XCOFFTracebackTable", ptr %3, i32 0, i32 0
  %5 = load ptr, ptr %4, align 8
  %6 = getelementptr inbounds i8, ptr %5, i64 4
  %7 = call noundef i32 @_ZN4llvm7support6endian8read32beEPKv(ptr noundef %6)
  %8 = and i32 %7, 4194304
  %9 = icmp ne i32 %8, 0
  ret i1 %9
}